ARM GAS  C:\Users\OLEKSA~1\AppData\Local\Temp\cchGH56P.s 			page 1


   1              		.syntax unified
   2              		.cpu cortex-m3
   3              		.fpu softvfp
   4              		.eabi_attribute 20, 1
   5              		.eabi_attribute 21, 1
   6              		.eabi_attribute 23, 3
   7              		.eabi_attribute 24, 1
   8              		.eabi_attribute 25, 1
   9              		.eabi_attribute 26, 1
  10              		.eabi_attribute 30, 1
  11              		.eabi_attribute 34, 1
  12              		.eabi_attribute 18, 4
  13              		.thumb
  14              		.syntax unified
  15              		.file	"main.c"
  16              		.text
  17              	.Ltext0:
  18              		.cfi_sections	.debug_frame
  19              		.section	.text.Read_I2C,"ax",%progbits
  20              		.align	2
  21              		.global	Read_I2C
  22              		.thumb
  23              		.thumb_func
  24              		.type	Read_I2C, %function
  25              	Read_I2C:
  26              	.LFB64:
  27              		.file 1 "main.c"
   1:main.c        **** /* ========================================
   2:main.c        ****  *
   3:main.c        ****  * Copyright YOUR COMPANY, THE YEAR
   4:main.c        ****  * All Rights Reserved
   5:main.c        ****  * UNPUBLISHED, LICENSED SOFTWARE.
   6:main.c        ****  *
   7:main.c        ****  * CONFIDENTIAL AND PROPRIETARY INFORMATION
   8:main.c        ****  * WHICH IS THE PROPERTY OF your company.
   9:main.c        ****  *
  10:main.c        ****  * ========================================
  11:main.c        **** */
  12:main.c        **** #include <project.h>
  13:main.c        **** #include <stdio.h>
  14:main.c        **** 
  15:main.c        **** #define     ADXL345_Addr    0x53
  16:main.c        **** #define     RA_BW_RATE          0x2C    // R/W   0x0A   Data rate and power mode control
  17:main.c        **** #define 	RA_DATA_FORMAT 	    0x31 	// R/W 	 0   	Data format control
  18:main.c        **** #define 	RA_POWER_CTL 	    0x2D 	// R/W 	 0   	Power-saving features control
  19:main.c        **** #define 	RA_DATAX0 	        0x32 	// R 	 0 	    X-Axis Data 0
  20:main.c        **** #define 	RA_DATAX1 	        0x33 	// R 	 0 	    X-Axis Data 1
  21:main.c        **** #define 	RA_DATAY0 	        0x34 	// R 	 0 	    Y-Axis Data 0
  22:main.c        **** #define 	RA_DATAY1 	        0x35 	// R 	 0 	    Y-Axis Data 1
  23:main.c        **** #define 	RA_DATAZ0 	        0x36 	// R 	 0 	    Z-Axis Data 0
  24:main.c        **** #define 	RA_DATAZ1 	        0x37 	// R 	 0 	    Z-Axis Data 1
  25:main.c        **** #define     RA_OFSX             0x1E    // R/W   0      X-axis offset
  26:main.c        **** #define     RA_OFSY             0x1F    // R/W   0      Y-axis offset
  27:main.c        **** #define     RA_OFSZ             0x20    // R/W   0      Z-axis offset
  28:main.c        **** 
  29:main.c        **** #define SCALE_FACTOR 3.9f               // convert raw x,y,z values to corresponding g-values
  30:main.c        **** 
ARM GAS  C:\Users\OLEKSA~1\AppData\Local\Temp\cchGH56P.s 			page 2


  31:main.c        **** float cal_X = 0, cal_Y = 0, cal_Z = 0;  // x,y,z values for offset calibration
  32:main.c        **** 
  33:main.c        **** char buffer[50];                        // buffer to convert numbers to strings
  34:main.c        **** int16 x, y, z;
  35:main.c        **** float xg, yg, zg;
  36:main.c        **** 
  37:main.c        **** unsigned char Read_I2C(unsigned char BusAddress , unsigned char reg)
  38:main.c        **** {  
  28              		.loc 1 38 0
  29              		.cfi_startproc
  30              		@ args = 0, pretend = 0, frame = 0
  31              		@ frame_needed = 0, uses_anonymous_args = 0
  32              	.LVL0:
  33 0000 38B5     		push	{r3, r4, r5, lr}
  34              		.cfi_def_cfa_offset 16
  35              		.cfi_offset 3, -16
  36              		.cfi_offset 4, -12
  37              		.cfi_offset 5, -8
  38              		.cfi_offset 14, -4
  39 0002 0446     		mov	r4, r0
  40 0004 0D46     		mov	r5, r1
  39:main.c        ****     unsigned char data;
  40:main.c        **** 
  41:main.c        ****     I2C_MasterSendStart(BusAddress,I2C_WRITE_XFER_MODE);    // Initialize a transaction for writing
  41              		.loc 1 41 0
  42 0006 0021     		movs	r1, #0
  43              	.LVL1:
  44 0008 FFF7FEFF 		bl	I2C_MasterSendStart
  45              	.LVL2:
  42:main.c        ****     I2C_MasterWriteByte(reg);                                // Indicate which register you want to
  46              		.loc 1 42 0
  47 000c 2846     		mov	r0, r5
  48 000e FFF7FEFF 		bl	I2C_MasterWriteByte
  49              	.LVL3:
  43:main.c        ****     I2C_MasterSendRestart(BusAddress,I2C_READ_XFER_MODE);   // Initialize a transaction for reading
  50              		.loc 1 43 0
  51 0012 0121     		movs	r1, #1
  52 0014 2046     		mov	r0, r4
  53 0016 FFF7FEFF 		bl	I2C_MasterSendRestart
  54              	.LVL4:
  44:main.c        ****     
  45:main.c        ****     CyDelay(1u);
  55              		.loc 1 45 0
  56 001a 0120     		movs	r0, #1
  57 001c FFF7FEFF 		bl	CyDelay
  58              	.LVL5:
  46:main.c        ****     
  47:main.c        ****     data = I2C_MasterReadByte(I2C_ACK_DATA);       // Read from register
  59              		.loc 1 47 0
  60 0020 0120     		movs	r0, #1
  61 0022 FFF7FEFF 		bl	I2C_MasterReadByte
  62              	.LVL6:
  63 0026 0446     		mov	r4, r0
  64              	.LVL7:
  48:main.c        ****     //I2C_MasterReadByte(I2C_NAK_DATA);            // Read from register, last byte is NAKed (optio
  49:main.c        ****     I2C_MasterSendStop();                           // End of transaction
  65              		.loc 1 49 0
ARM GAS  C:\Users\OLEKSA~1\AppData\Local\Temp\cchGH56P.s 			page 3


  66 0028 FFF7FEFF 		bl	I2C_MasterSendStop
  67              	.LVL8:
  50:main.c        ****     return data;
  51:main.c        **** }
  68              		.loc 1 51 0
  69 002c 2046     		mov	r0, r4
  70 002e 38BD     		pop	{r3, r4, r5, pc}
  71              		.cfi_endproc
  72              	.LFE64:
  73              		.size	Read_I2C, .-Read_I2C
  74              		.section	.text.Write_I2C,"ax",%progbits
  75              		.align	2
  76              		.global	Write_I2C
  77              		.thumb
  78              		.thumb_func
  79              		.type	Write_I2C, %function
  80              	Write_I2C:
  81              	.LFB65:
  52:main.c        **** 
  53:main.c        **** void Write_I2C(unsigned char BusAddress , unsigned char reg , unsigned char data)
  54:main.c        **** {
  82              		.loc 1 54 0
  83              		.cfi_startproc
  84              		@ args = 0, pretend = 0, frame = 0
  85              		@ frame_needed = 0, uses_anonymous_args = 0
  86              	.LVL9:
  87 0000 38B5     		push	{r3, r4, r5, lr}
  88              		.cfi_def_cfa_offset 16
  89              		.cfi_offset 3, -16
  90              		.cfi_offset 4, -12
  91              		.cfi_offset 5, -8
  92              		.cfi_offset 14, -4
  93 0002 0D46     		mov	r5, r1
  94 0004 1446     		mov	r4, r2
  55:main.c        ****     I2C_MasterSendStart(BusAddress,I2C_WRITE_XFER_MODE);     // Initialize a transaction for writin
  95              		.loc 1 55 0
  96 0006 0021     		movs	r1, #0
  97              	.LVL10:
  98 0008 FFF7FEFF 		bl	I2C_MasterSendStart
  99              	.LVL11:
  56:main.c        ****     I2C_MasterWriteByte(reg);                                // Indicate which register you want to
 100              		.loc 1 56 0
 101 000c 2846     		mov	r0, r5
 102 000e FFF7FEFF 		bl	I2C_MasterWriteByte
 103              	.LVL12:
  57:main.c        ****     I2C_MasterWriteByte(data);                              // Write to register
 104              		.loc 1 57 0
 105 0012 2046     		mov	r0, r4
 106 0014 FFF7FEFF 		bl	I2C_MasterWriteByte
 107              	.LVL13:
  58:main.c        ****     I2C_MasterSendStop();                                   // End of transaction
 108              		.loc 1 58 0
 109 0018 FFF7FEFF 		bl	I2C_MasterSendStop
 110              	.LVL14:
 111 001c 38BD     		pop	{r3, r4, r5, pc}
 112              		.cfi_endproc
 113              	.LFE65:
ARM GAS  C:\Users\OLEKSA~1\AppData\Local\Temp\cchGH56P.s 			page 4


 114              		.size	Write_I2C, .-Write_I2C
 115 001e 00BF     		.section	.text.ADXL345_Init,"ax",%progbits
 116              		.align	2
 117              		.global	ADXL345_Init
 118              		.thumb
 119              		.thumb_func
 120              		.type	ADXL345_Init, %function
 121              	ADXL345_Init:
 122              	.LFB66:
  59:main.c        **** }
  60:main.c        **** 
  61:main.c        **** void ADXL345_Init(void)
  62:main.c        **** {
 123              		.loc 1 62 0
 124              		.cfi_startproc
 125              		@ args = 0, pretend = 0, frame = 0
 126              		@ frame_needed = 0, uses_anonymous_args = 0
 127 0000 08B5     		push	{r3, lr}
 128              		.cfi_def_cfa_offset 8
 129              		.cfi_offset 3, -8
 130              		.cfi_offset 14, -4
  63:main.c        ****     CyDelay(2u);
 131              		.loc 1 63 0
 132 0002 0220     		movs	r0, #2
 133 0004 FFF7FEFF 		bl	CyDelay
 134              	.LVL15:
  64:main.c        ****     Write_I2C(ADXL345_Addr,RA_BW_RATE, 0x09);       //  50 Hz
 135              		.loc 1 64 0
 136 0008 0922     		movs	r2, #9
 137 000a 2C21     		movs	r1, #44
 138 000c 5320     		movs	r0, #83
 139 000e FFF7FEFF 		bl	Write_I2C
 140              	.LVL16:
  65:main.c        ****     Write_I2C(ADXL345_Addr,RA_DATA_FORMAT, 0x0);   //  +/-2g , 10-BIT MODE
 141              		.loc 1 65 0
 142 0012 0022     		movs	r2, #0
 143 0014 3121     		movs	r1, #49
 144 0016 5320     		movs	r0, #83
 145 0018 FFF7FEFF 		bl	Write_I2C
 146              	.LVL17:
  66:main.c        ****     Write_I2C(ADXL345_Addr,RA_POWER_CTL, 0x08);     //  START MEASUREMENT
 147              		.loc 1 66 0
 148 001c 0822     		movs	r2, #8
 149 001e 2D21     		movs	r1, #45
 150 0020 5320     		movs	r0, #83
 151 0022 FFF7FEFF 		bl	Write_I2C
 152              	.LVL18:
  67:main.c        ****     CyDelay(2u);
 153              		.loc 1 67 0
 154 0026 0220     		movs	r0, #2
 155 0028 FFF7FEFF 		bl	CyDelay
 156              	.LVL19:
 157 002c 08BD     		pop	{r3, pc}
 158              		.cfi_endproc
 159              	.LFE66:
 160              		.size	ADXL345_Init, .-ADXL345_Init
 161              		.global	__aeabi_i2f
ARM GAS  C:\Users\OLEKSA~1\AppData\Local\Temp\cchGH56P.s 			page 5


 162              		.global	__aeabi_fmul
 163              		.global	__aeabi_fdiv
 164 002e 00BF     		.section	.text.Get_Accel_Values,"ax",%progbits
 165              		.align	2
 166              		.global	Get_Accel_Values
 167              		.thumb
 168              		.thumb_func
 169              		.type	Get_Accel_Values, %function
 170              	Get_Accel_Values:
 171              	.LFB67:
  68:main.c        **** }
  69:main.c        **** 
  70:main.c        **** void Get_Accel_Values(void)
  71:main.c        **** {
 172              		.loc 1 71 0
 173              		.cfi_startproc
 174              		@ args = 0, pretend = 0, frame = 0
 175              		@ frame_needed = 0, uses_anonymous_args = 0
 176 0000 70B5     		push	{r4, r5, r6, lr}
 177              		.cfi_def_cfa_offset 16
 178              		.cfi_offset 4, -16
 179              		.cfi_offset 5, -12
 180              		.cfi_offset 6, -8
 181              		.cfi_offset 14, -4
  72:main.c        ****     x = ((Read_I2C(ADXL345_Addr, RA_DATAX1) << 8) | Read_I2C(ADXL345_Addr, RA_DATAX0)); 
 182              		.loc 1 72 0
 183 0002 3321     		movs	r1, #51
 184 0004 5320     		movs	r0, #83
 185 0006 FFF7FEFF 		bl	Read_I2C
 186              	.LVL20:
 187 000a 0402     		lsls	r4, r0, #8
 188 000c 3221     		movs	r1, #50
 189 000e 5320     		movs	r0, #83
 190 0010 FFF7FEFF 		bl	Read_I2C
 191              	.LVL21:
 192 0014 1F4D     		ldr	r5, .L9
 193 0016 2043     		orrs	r0, r0, r4
 194 0018 2880     		strh	r0, [r5]	@ movhi
  73:main.c        ****     y = ((Read_I2C(ADXL345_Addr, RA_DATAY1) << 8) | Read_I2C(ADXL345_Addr, RA_DATAY0)); 
 195              		.loc 1 73 0
 196 001a 3521     		movs	r1, #53
 197 001c 5320     		movs	r0, #83
 198 001e FFF7FEFF 		bl	Read_I2C
 199              	.LVL22:
 200 0022 0402     		lsls	r4, r0, #8
 201 0024 3421     		movs	r1, #52
 202 0026 5320     		movs	r0, #83
 203 0028 FFF7FEFF 		bl	Read_I2C
 204              	.LVL23:
 205 002c 1A4E     		ldr	r6, .L9+4
 206 002e 2043     		orrs	r0, r0, r4
 207 0030 3080     		strh	r0, [r6]	@ movhi
  74:main.c        ****     z = ((Read_I2C(ADXL345_Addr, RA_DATAZ1) << 8) | Read_I2C(ADXL345_Addr, RA_DATAZ0)); 
 208              		.loc 1 74 0
 209 0032 3721     		movs	r1, #55
 210 0034 5320     		movs	r0, #83
 211 0036 FFF7FEFF 		bl	Read_I2C
ARM GAS  C:\Users\OLEKSA~1\AppData\Local\Temp\cchGH56P.s 			page 6


 212              	.LVL24:
 213 003a 0402     		lsls	r4, r0, #8
 214 003c 3621     		movs	r1, #54
 215 003e 5320     		movs	r0, #83
 216 0040 FFF7FEFF 		bl	Read_I2C
 217              	.LVL25:
 218 0044 2043     		orrs	r0, r0, r4
 219 0046 04B2     		sxth	r4, r0
 220 0048 144B     		ldr	r3, .L9+8
 221 004a 1C80     		strh	r4, [r3]	@ movhi
  75:main.c        ****     
  76:main.c        ****     xg = SCALE_FACTOR * (float)x / 1000.0;
 222              		.loc 1 76 0
 223 004c B5F90000 		ldrsh	r0, [r5]
 224 0050 FFF7FEFF 		bl	__aeabi_i2f
 225              	.LVL26:
 226 0054 1249     		ldr	r1, .L9+12
 227 0056 FFF7FEFF 		bl	__aeabi_fmul
 228              	.LVL27:
 229 005a 1249     		ldr	r1, .L9+16
 230 005c FFF7FEFF 		bl	__aeabi_fdiv
 231              	.LVL28:
 232 0060 114B     		ldr	r3, .L9+20
 233 0062 1860     		str	r0, [r3]	@ float
  77:main.c        ****     yg = SCALE_FACTOR * (float)y / 1000.0;
 234              		.loc 1 77 0
 235 0064 B6F90000 		ldrsh	r0, [r6]
 236 0068 FFF7FEFF 		bl	__aeabi_i2f
 237              	.LVL29:
 238 006c 0C49     		ldr	r1, .L9+12
 239 006e FFF7FEFF 		bl	__aeabi_fmul
 240              	.LVL30:
 241 0072 0C49     		ldr	r1, .L9+16
 242 0074 FFF7FEFF 		bl	__aeabi_fdiv
 243              	.LVL31:
 244 0078 0C4B     		ldr	r3, .L9+24
 245 007a 1860     		str	r0, [r3]	@ float
  78:main.c        ****     zg = SCALE_FACTOR * (float)z / 1000.0;   
 246              		.loc 1 78 0
 247 007c 2046     		mov	r0, r4
 248 007e FFF7FEFF 		bl	__aeabi_i2f
 249              	.LVL32:
 250 0082 0749     		ldr	r1, .L9+12
 251 0084 FFF7FEFF 		bl	__aeabi_fmul
 252              	.LVL33:
 253 0088 0649     		ldr	r1, .L9+16
 254 008a FFF7FEFF 		bl	__aeabi_fdiv
 255              	.LVL34:
 256 008e 084B     		ldr	r3, .L9+28
 257 0090 1860     		str	r0, [r3]	@ float
 258 0092 70BD     		pop	{r4, r5, r6, pc}
 259              	.L10:
 260              		.align	2
 261              	.L9:
 262 0094 00000000 		.word	x
 263 0098 00000000 		.word	y
 264 009c 00000000 		.word	z
ARM GAS  C:\Users\OLEKSA~1\AppData\Local\Temp\cchGH56P.s 			page 7


 265 00a0 9A997940 		.word	1081711002
 266 00a4 00007A44 		.word	1148846080
 267 00a8 00000000 		.word	xg
 268 00ac 00000000 		.word	yg
 269 00b0 00000000 		.word	zg
 270              		.cfi_endproc
 271              	.LFE67:
 272              		.size	Get_Accel_Values, .-Get_Accel_Values
 273              		.global	__aeabi_f2uiz
 274              		.section	.text.Offset_Calibration,"ax",%progbits
 275              		.align	2
 276              		.global	Offset_Calibration
 277              		.thumb
 278              		.thumb_func
 279              		.type	Offset_Calibration, %function
 280              	Offset_Calibration:
 281              	.LFB68:
  79:main.c        **** }
  80:main.c        **** 
  81:main.c        **** void Offset_Calibration(void)
  82:main.c        **** {
 282              		.loc 1 82 0
 283              		.cfi_startproc
 284              		@ args = 0, pretend = 0, frame = 0
 285              		@ frame_needed = 0, uses_anonymous_args = 0
 286 0000 38B5     		push	{r3, r4, r5, lr}
 287              		.cfi_def_cfa_offset 16
 288              		.cfi_offset 3, -16
 289              		.cfi_offset 4, -12
 290              		.cfi_offset 5, -8
 291              		.cfi_offset 14, -4
  83:main.c        ****     cal_X = -1 * ((Read_I2C(ADXL345_Addr, RA_DATAX1) << 8) | Read_I2C(ADXL345_Addr, RA_DATAX0));
 292              		.loc 1 83 0
 293 0002 3321     		movs	r1, #51
 294 0004 5320     		movs	r0, #83
 295 0006 FFF7FEFF 		bl	Read_I2C
 296              	.LVL35:
 297 000a 0402     		lsls	r4, r0, #8
 298 000c 3221     		movs	r1, #50
 299 000e 5320     		movs	r0, #83
 300 0010 FFF7FEFF 		bl	Read_I2C
 301              	.LVL36:
 302 0014 2043     		orrs	r0, r0, r4
 303 0016 1D4C     		ldr	r4, .L13
 304 0018 4042     		negs	r0, r0
 305 001a FFF7FEFF 		bl	__aeabi_i2f
 306              	.LVL37:
 307 001e 2060     		str	r0, [r4]	@ float
  84:main.c        ****     cal_Y = -1 * ((Read_I2C(ADXL345_Addr, RA_DATAY1) << 8) | Read_I2C(ADXL345_Addr, RA_DATAY0));
 308              		.loc 1 84 0
 309 0020 3521     		movs	r1, #53
 310 0022 5320     		movs	r0, #83
 311 0024 FFF7FEFF 		bl	Read_I2C
 312              	.LVL38:
 313 0028 0502     		lsls	r5, r0, #8
 314 002a 3421     		movs	r1, #52
 315 002c 5320     		movs	r0, #83
ARM GAS  C:\Users\OLEKSA~1\AppData\Local\Temp\cchGH56P.s 			page 8


 316 002e FFF7FEFF 		bl	Read_I2C
 317              	.LVL39:
 318 0032 2843     		orrs	r0, r0, r5
 319 0034 4042     		negs	r0, r0
 320 0036 FFF7FEFF 		bl	__aeabi_i2f
 321              	.LVL40:
 322 003a 6060     		str	r0, [r4, #4]	@ float
  85:main.c        ****     cal_Z = -1 * ((Read_I2C(ADXL345_Addr, RA_DATAZ1) << 8) | Read_I2C(ADXL345_Addr, RA_DATAZ0));
 323              		.loc 1 85 0
 324 003c 3721     		movs	r1, #55
 325 003e 5320     		movs	r0, #83
 326 0040 FFF7FEFF 		bl	Read_I2C
 327              	.LVL41:
 328 0044 0502     		lsls	r5, r0, #8
 329 0046 3621     		movs	r1, #54
 330 0048 5320     		movs	r0, #83
 331 004a FFF7FEFF 		bl	Read_I2C
 332              	.LVL42:
 333 004e 2843     		orrs	r0, r0, r5
 334 0050 4042     		negs	r0, r0
 335 0052 FFF7FEFF 		bl	__aeabi_i2f
 336              	.LVL43:
 337 0056 A060     		str	r0, [r4, #8]	@ float
  86:main.c        ****     
  87:main.c        ****     Write_I2C(ADXL345_Addr, RA_OFSX, cal_X);
 338              		.loc 1 87 0
 339 0058 2068     		ldr	r0, [r4]	@ float
 340 005a FFF7FEFF 		bl	__aeabi_f2uiz
 341              	.LVL44:
 342 005e C2B2     		uxtb	r2, r0
 343 0060 1E21     		movs	r1, #30
 344 0062 5320     		movs	r0, #83
 345 0064 FFF7FEFF 		bl	Write_I2C
 346              	.LVL45:
  88:main.c        ****     Write_I2C(ADXL345_Addr, RA_OFSY, cal_Y);
 347              		.loc 1 88 0
 348 0068 6068     		ldr	r0, [r4, #4]	@ float
 349 006a FFF7FEFF 		bl	__aeabi_f2uiz
 350              	.LVL46:
 351 006e C2B2     		uxtb	r2, r0
 352 0070 1F21     		movs	r1, #31
 353 0072 5320     		movs	r0, #83
 354 0074 FFF7FEFF 		bl	Write_I2C
 355              	.LVL47:
  89:main.c        ****     Write_I2C(ADXL345_Addr, RA_OFSZ, cal_Z);
 356              		.loc 1 89 0
 357 0078 A068     		ldr	r0, [r4, #8]	@ float
 358 007a FFF7FEFF 		bl	__aeabi_f2uiz
 359              	.LVL48:
 360 007e C2B2     		uxtb	r2, r0
 361 0080 2021     		movs	r1, #32
 362 0082 5320     		movs	r0, #83
 363 0084 FFF7FEFF 		bl	Write_I2C
 364              	.LVL49:
 365 0088 38BD     		pop	{r3, r4, r5, pc}
 366              	.L14:
 367 008a 00BF     		.align	2
ARM GAS  C:\Users\OLEKSA~1\AppData\Local\Temp\cchGH56P.s 			page 9


 368              	.L13:
 369 008c 00000000 		.word	.LANCHOR0
 370              		.cfi_endproc
 371              	.LFE68:
 372              		.size	Offset_Calibration, .-Offset_Calibration
 373              		.global	__aeabi_f2d
 374              		.section	.text.main,"ax",%progbits
 375              		.align	2
 376              		.global	main
 377              		.thumb
 378              		.thumb_func
 379              		.type	main, %function
 380              	main:
 381              	.LFB69:
  90:main.c        **** }
  91:main.c        **** 
  92:main.c        **** int main()
  93:main.c        **** {    
 382              		.loc 1 93 0
 383              		.cfi_startproc
 384              		@ Volatile: function does not return.
 385              		@ args = 0, pretend = 0, frame = 0
 386              		@ frame_needed = 0, uses_anonymous_args = 0
 387 0000 08B5     		push	{r3, lr}
 388              		.cfi_def_cfa_offset 8
 389              		.cfi_offset 3, -8
 390              		.cfi_offset 14, -4
  94:main.c        ****     CyGlobalIntEnable; /* Enable global interrupts. */
 391              		.loc 1 94 0
 392              		.syntax unified
 393              	@ 94 "main.c" 1
 394 0002 62B6     		CPSIE   i
 395              	@ 0 "" 2
  95:main.c        **** 
  96:main.c        ****     I2C_Start();
 396              		.loc 1 96 0
 397              		.thumb
 398              		.syntax unified
 399 0004 FFF7FEFF 		bl	I2C_Start
 400              	.LVL50:
  97:main.c        ****     UART_Start();
 401              		.loc 1 97 0
 402 0008 FFF7FEFF 		bl	UART_Start
 403              	.LVL51:
  98:main.c        ****     LCD_Init();
 404              		.loc 1 98 0
 405 000c FFF7FEFF 		bl	LCD_Init
 406              	.LVL52:
  99:main.c        ****     
 100:main.c        ****     ADXL345_Init();
 407              		.loc 1 100 0
 408 0010 FFF7FEFF 		bl	ADXL345_Init
 409              	.LVL53:
 101:main.c        ****     //Offset_Calibration();
 102:main.c        ****     
 103:main.c        ****     UART_PutString("***ADXL345***");
 410              		.loc 1 103 0
ARM GAS  C:\Users\OLEKSA~1\AppData\Local\Temp\cchGH56P.s 			page 10


 411 0014 3348     		ldr	r0, .L18
 412 0016 FFF7FEFF 		bl	UART_PutString
 413              	.LVL54:
 104:main.c        ****     UART_PutString("\r\n");
 414              		.loc 1 104 0
 415 001a 3348     		ldr	r0, .L18+4
 416 001c FFF7FEFF 		bl	UART_PutString
 417              	.LVL55:
 418              	.L16:
 105:main.c        ****     
 106:main.c        ****     for(;;)
 107:main.c        ****     {
 108:main.c        ****         Get_Accel_Values();
 419              		.loc 1 108 0 discriminator 1
 420 0020 FFF7FEFF 		bl	Get_Accel_Values
 421              	.LVL56:
 109:main.c        ****         
 110:main.c        ****         LCD_Position(0, 0);
 422              		.loc 1 110 0 discriminator 1
 423 0024 0021     		movs	r1, #0
 424 0026 0846     		mov	r0, r1
 425 0028 FFF7FEFF 		bl	LCD_Position
 426              	.LVL57:
 111:main.c        **** 
 112:main.c        ****         sprintf(buffer,"X: %3d   ", x);
 427              		.loc 1 112 0 discriminator 1
 428 002c 2F4C     		ldr	r4, .L18+8
 429 002e 304B     		ldr	r3, .L18+12
 430 0030 B3F90020 		ldrsh	r2, [r3]
 431 0034 2F49     		ldr	r1, .L18+16
 432 0036 2046     		mov	r0, r4
 433 0038 FFF7FEFF 		bl	sprintf
 434              	.LVL58:
 113:main.c        ****         UART_PutString(buffer);
 435              		.loc 1 113 0 discriminator 1
 436 003c 2046     		mov	r0, r4
 437 003e FFF7FEFF 		bl	UART_PutString
 438              	.LVL59:
 114:main.c        ****         LCD_PrintString(buffer);
 439              		.loc 1 114 0 discriminator 1
 440 0042 2046     		mov	r0, r4
 441 0044 FFF7FEFF 		bl	LCD_PrintString
 442              	.LVL60:
 115:main.c        **** 
 116:main.c        ****         sprintf(buffer,"Y: %3d   ", y);
 443              		.loc 1 116 0 discriminator 1
 444 0048 2B4B     		ldr	r3, .L18+20
 445 004a B3F90020 		ldrsh	r2, [r3]
 446 004e 2B49     		ldr	r1, .L18+24
 447 0050 2046     		mov	r0, r4
 448 0052 FFF7FEFF 		bl	sprintf
 449              	.LVL61:
 117:main.c        ****         UART_PutString(buffer);
 450              		.loc 1 117 0 discriminator 1
 451 0056 2046     		mov	r0, r4
 452 0058 FFF7FEFF 		bl	UART_PutString
 453              	.LVL62:
ARM GAS  C:\Users\OLEKSA~1\AppData\Local\Temp\cchGH56P.s 			page 11


 118:main.c        ****         LCD_PrintString(buffer);
 454              		.loc 1 118 0 discriminator 1
 455 005c 2046     		mov	r0, r4
 456 005e FFF7FEFF 		bl	LCD_PrintString
 457              	.LVL63:
 119:main.c        ****         
 120:main.c        ****         LCD_Position(1, 0);
 458              		.loc 1 120 0 discriminator 1
 459 0062 0021     		movs	r1, #0
 460 0064 0120     		movs	r0, #1
 461 0066 FFF7FEFF 		bl	LCD_Position
 462              	.LVL64:
 121:main.c        **** 
 122:main.c        ****         sprintf(buffer,"Z: %3d   ", z);
 463              		.loc 1 122 0 discriminator 1
 464 006a 254B     		ldr	r3, .L18+28
 465 006c B3F90020 		ldrsh	r2, [r3]
 466 0070 2449     		ldr	r1, .L18+32
 467 0072 2046     		mov	r0, r4
 468 0074 FFF7FEFF 		bl	sprintf
 469              	.LVL65:
 123:main.c        ****         UART_PutString(buffer);
 470              		.loc 1 123 0 discriminator 1
 471 0078 2046     		mov	r0, r4
 472 007a FFF7FEFF 		bl	UART_PutString
 473              	.LVL66:
 124:main.c        ****         LCD_PrintString(buffer);
 474              		.loc 1 124 0 discriminator 1
 475 007e 2046     		mov	r0, r4
 476 0080 FFF7FEFF 		bl	LCD_PrintString
 477              	.LVL67:
 125:main.c        ****         
 126:main.c        ****         sprintf(buffer,"Xg: %.2f   ", xg);
 478              		.loc 1 126 0 discriminator 1
 479 0084 204B     		ldr	r3, .L18+36
 480 0086 1868     		ldr	r0, [r3]	@ float
 481 0088 FFF7FEFF 		bl	__aeabi_f2d
 482              	.LVL68:
 483 008c 0246     		mov	r2, r0
 484 008e 0B46     		mov	r3, r1
 485 0090 1E49     		ldr	r1, .L18+40
 486 0092 2046     		mov	r0, r4
 487 0094 FFF7FEFF 		bl	sprintf
 488              	.LVL69:
 127:main.c        ****         UART_PutString(buffer);
 489              		.loc 1 127 0 discriminator 1
 490 0098 2046     		mov	r0, r4
 491 009a FFF7FEFF 		bl	UART_PutString
 492              	.LVL70:
 128:main.c        **** 
 129:main.c        ****         sprintf(buffer,"Yg: %.2f   ", yg);
 493              		.loc 1 129 0 discriminator 1
 494 009e 1C4B     		ldr	r3, .L18+44
 495 00a0 1868     		ldr	r0, [r3]	@ float
 496 00a2 FFF7FEFF 		bl	__aeabi_f2d
 497              	.LVL71:
 498 00a6 0246     		mov	r2, r0
ARM GAS  C:\Users\OLEKSA~1\AppData\Local\Temp\cchGH56P.s 			page 12


 499 00a8 0B46     		mov	r3, r1
 500 00aa 1A49     		ldr	r1, .L18+48
 501 00ac 2046     		mov	r0, r4
 502 00ae FFF7FEFF 		bl	sprintf
 503              	.LVL72:
 130:main.c        ****         UART_PutString(buffer);
 504              		.loc 1 130 0 discriminator 1
 505 00b2 2046     		mov	r0, r4
 506 00b4 FFF7FEFF 		bl	UART_PutString
 507              	.LVL73:
 131:main.c        **** 
 132:main.c        ****         sprintf(buffer,"Zg: %.2f   ", zg);
 508              		.loc 1 132 0 discriminator 1
 509 00b8 174B     		ldr	r3, .L18+52
 510 00ba 1868     		ldr	r0, [r3]	@ float
 511 00bc FFF7FEFF 		bl	__aeabi_f2d
 512              	.LVL74:
 513 00c0 0246     		mov	r2, r0
 514 00c2 0B46     		mov	r3, r1
 515 00c4 1549     		ldr	r1, .L18+56
 516 00c6 2046     		mov	r0, r4
 517 00c8 FFF7FEFF 		bl	sprintf
 518              	.LVL75:
 133:main.c        ****         UART_PutString(buffer);
 519              		.loc 1 133 0 discriminator 1
 520 00cc 2046     		mov	r0, r4
 521 00ce FFF7FEFF 		bl	UART_PutString
 522              	.LVL76:
 134:main.c        ****         
 135:main.c        ****         UART_PutString("\r\n");
 523              		.loc 1 135 0 discriminator 1
 524 00d2 0548     		ldr	r0, .L18+4
 525 00d4 FFF7FEFF 		bl	UART_PutString
 526              	.LVL77:
 136:main.c        ****         
 137:main.c        ****         CyDelay(500);
 527              		.loc 1 137 0 discriminator 1
 528 00d8 4FF4FA70 		mov	r0, #500
 529 00dc FFF7FEFF 		bl	CyDelay
 530              	.LVL78:
 531 00e0 9EE7     		b	.L16
 532              	.L19:
 533 00e2 00BF     		.align	2
 534              	.L18:
 535 00e4 00000000 		.word	.LC0
 536 00e8 10000000 		.word	.LC1
 537 00ec 00000000 		.word	buffer
 538 00f0 00000000 		.word	x
 539 00f4 14000000 		.word	.LC2
 540 00f8 00000000 		.word	y
 541 00fc 20000000 		.word	.LC3
 542 0100 00000000 		.word	z
 543 0104 2C000000 		.word	.LC4
 544 0108 00000000 		.word	xg
 545 010c 38000000 		.word	.LC5
 546 0110 00000000 		.word	yg
 547 0114 44000000 		.word	.LC6
ARM GAS  C:\Users\OLEKSA~1\AppData\Local\Temp\cchGH56P.s 			page 13


 548 0118 00000000 		.word	zg
 549 011c 50000000 		.word	.LC7
 550              		.cfi_endproc
 551              	.LFE69:
 552              		.size	main, .-main
 553              		.comm	zg,4,4
 554              		.comm	yg,4,4
 555              		.comm	xg,4,4
 556              		.comm	z,2,2
 557              		.comm	y,2,2
 558              		.comm	x,2,2
 559              		.comm	buffer,50,4
 560              		.global	cal_Z
 561              		.global	cal_Y
 562              		.global	cal_X
 563              		.section	.rodata.str1.4,"aMS",%progbits,1
 564              		.align	2
 565              	.LC0:
 566 0000 2A2A2A41 		.ascii	"***ADXL345***\000"
 566      44584C33 
 566      34352A2A 
 566      2A00
 567 000e 0000     		.space	2
 568              	.LC1:
 569 0010 0D0A00   		.ascii	"\015\012\000"
 570 0013 00       		.space	1
 571              	.LC2:
 572 0014 583A2025 		.ascii	"X: %3d   \000"
 572      33642020 
 572      2000
 573 001e 0000     		.space	2
 574              	.LC3:
 575 0020 593A2025 		.ascii	"Y: %3d   \000"
 575      33642020 
 575      2000
 576 002a 0000     		.space	2
 577              	.LC4:
 578 002c 5A3A2025 		.ascii	"Z: %3d   \000"
 578      33642020 
 578      2000
 579 0036 0000     		.space	2
 580              	.LC5:
 581 0038 58673A20 		.ascii	"Xg: %.2f   \000"
 581      252E3266 
 581      20202000 
 582              	.LC6:
 583 0044 59673A20 		.ascii	"Yg: %.2f   \000"
 583      252E3266 
 583      20202000 
 584              	.LC7:
 585 0050 5A673A20 		.ascii	"Zg: %.2f   \000"
 585      252E3266 
 585      20202000 
 586              		.bss
 587              		.align	2
 588              		.set	.LANCHOR0,. + 0
 589              		.type	cal_X, %object
ARM GAS  C:\Users\OLEKSA~1\AppData\Local\Temp\cchGH56P.s 			page 14


 590              		.size	cal_X, 4
 591              	cal_X:
 592 0000 00000000 		.space	4
 593              		.type	cal_Y, %object
 594              		.size	cal_Y, 4
 595              	cal_Y:
 596 0004 00000000 		.space	4
 597              		.type	cal_Z, %object
 598              		.size	cal_Z, 4
 599              	cal_Z:
 600 0008 00000000 		.space	4
 601              		.text
 602              	.Letext0:
 603              		.file 2 "c:\\program files (x86)\\cypress\\psoc creator\\4.4\\psoc creator\\import\\gnu\\arm\\5.4.
 604              		.file 3 "c:\\program files (x86)\\cypress\\psoc creator\\4.4\\psoc creator\\import\\gnu\\arm\\5.4.
 605              		.file 4 "Generated_Source\\PSoC5/cytypes.h"
 606              		.file 5 "Generated_Source\\PSoC5/core_cm3.h"
 607              		.file 6 "Generated_Source\\PSoC5/I2C.h"
 608              		.file 7 "Generated_Source\\PSoC5/CyLib.h"
 609              		.file 8 "Generated_Source\\PSoC5/UART.h"
 610              		.file 9 "Generated_Source\\PSoC5/LCD.h"
 611              		.file 10 "c:\\program files (x86)\\cypress\\psoc creator\\4.4\\psoc creator\\import\\gnu\\arm\\5.4